target datalayout = "e-m:e-p270:32:32-p271:32:32-p272:64:64-i64:64-i128:128-f80:128-n8:16:32:64-S128"
target triple = "x86_64-pc-linux-gnu"

; Function Attrs: inlinehint nounwind uwtable
define internal i64 @PointerGetDatum(ptr noundef %0) #2 {
  %2 = alloca ptr, align 8
  store ptr %0, ptr %2, align 8
  %3 = load ptr, ptr %2, align 8
  %4 = ptrtoint ptr %3 to i64
  ret i64 %4
}

; Function Attrs: nounwind uwtable
define dso_local i64 @datumRestore(ptr noundef %0, ptr noundef %1) #0 {
  %3 = alloca i64, align 8
  %4 = alloca ptr, align 8
  %5 = alloca ptr, align 8
  %6 = alloca i32, align 4
  %7 = alloca ptr, align 8
  %8 = alloca i32, align 4
  %9 = alloca i64, align 8
  store ptr %0, ptr %4, align 8
  store ptr %1, ptr %5, align 8
  call void @llvm.lifetime.start.p0(i64 4, ptr %6) #7
  call void @llvm.lifetime.start.p0(i64 8, ptr %7) #7
  %10 = load ptr, ptr %4, align 8
  %11 = load ptr, ptr %10, align 8
  call void @llvm.memcpy.p0.p0.i64(ptr align 4 %6, ptr align 1 %11, i64 4, i1 false)
  %12 = load ptr, ptr %4, align 8
  %13 = load ptr, ptr %12, align 8
  %14 = getelementptr inbounds nuw i8, ptr %13, i64 4
  store ptr %14, ptr %12, align 8
  %15 = load i32, ptr %6, align 4
  %16 = icmp eq i32 %15, -2
  br i1 %16, label %17, label %19

17:                                               ; preds = %2
  %18 = load ptr, ptr %5, align 8
  store i8 1, ptr %18, align 1
  store i64 0, ptr %3, align 8
  store i32 1, ptr %8, align 4
  br label %46

19:                                               ; preds = %2
  %20 = load ptr, ptr %5, align 8
  store i8 0, ptr %20, align 1
  %21 = load i32, ptr %6, align 4
  %22 = icmp eq i32 %21, -1
  br i1 %22, label %23, label %30

23:                                               ; preds = %19
  call void @llvm.lifetime.start.p0(i64 8, ptr %9) #7
  %24 = load ptr, ptr %4, align 8
  %25 = load ptr, ptr %24, align 8
  call void @llvm.memcpy.p0.p0.i64(ptr align 8 %9, ptr align 1 %25, i64 8, i1 false)
  %26 = load ptr, ptr %4, align 8
  %27 = load ptr, ptr %26, align 8
  %28 = getelementptr inbounds nuw i8, ptr %27, i64 8
  store ptr %28, ptr %26, align 8
  %29 = load i64, ptr %9, align 8
  store i64 %29, ptr %3, align 8
  store i32 1, ptr %8, align 4
  call void @llvm.lifetime.end.p0(i64 8, ptr %9) #7
  br label %46

30:                                               ; preds = %19
  %31 = load i32, ptr %6, align 4
  %32 = sext i32 %31 to i64
  %33 = call ptr @palloc(i64 noundef %32)
  store ptr %33, ptr %7, align 8
  %34 = load ptr, ptr %7, align 8
  %35 = load ptr, ptr %4, align 8
  %36 = load ptr, ptr %35, align 8
  %37 = load i32, ptr %6, align 4
  %38 = sext i32 %37 to i64
  call void @llvm.memcpy.p0.p0.i64(ptr align 1 %34, ptr align 1 %36, i64 %38, i1 false)
  %39 = load i32, ptr %6, align 4
  %40 = load ptr, ptr %4, align 8
  %41 = load ptr, ptr %40, align 8
  %42 = sext i32 %39 to i64
  %43 = getelementptr inbounds i8, ptr %41, i64 %42
  store ptr %43, ptr %40, align 8
  %44 = load ptr, ptr %7, align 8
  %45 = call i64 @PointerGetDatum(ptr noundef %44)
  store i64 %45, ptr %3, align 8
  store i32 1, ptr %8, align 4
  br label %46

46:                                               ; preds = %30, %23, %17
  call void @llvm.lifetime.end.p0(i64 8, ptr %7) #7
  call void @llvm.lifetime.end.p0(i64 4, ptr %6) #7
  %47 = load i64, ptr %3, align 8
  ret i64 %47
}