; Function Attrs: nounwind uwtable
define dso_local i64 @datumRestore(ptr noundef captures(none) %0, ptr noundef writeonly captures(none) initializes((0, 1)) %1) local_unnamed_addr #0 {
  %3 = load ptr, ptr %0, align 8
  %.0.copyload2 = load i32, ptr %3, align 1
  %4 = getelementptr inbounds nuw i8, ptr %3, i64 4
  store ptr %4, ptr %0, align 8
  %5 = icmp eq i32 %.0.copyload2, -2
  br i1 %5, label %6, label %7

6:                                                ; preds = %2
  store i8 1, ptr %1, align 1
  br label %19

7:                                                ; preds = %2
  store i8 0, ptr %1, align 1
  %8 = icmp eq i32 %.0.copyload2, -1
  br i1 %8, label %9, label %12

9:                                                ; preds = %7
  %10 = load ptr, ptr %0, align 8
  %.0.copyload = load i64, ptr %10, align 1
  %11 = getelementptr inbounds nuw i8, ptr %10, i64 8
  store ptr %11, ptr %0, align 8
  br label %19

12:                                               ; preds = %7
  %13 = sext i32 %.0.copyload2 to i64
  %14 = tail call ptr @palloc(i64 noundef %13) #9
  %15 = load ptr, ptr %0, align 8
  tail call void @llvm.memcpy.p0.p0.i64(ptr align 1 %14, ptr align 1 %15, i64 %13, i1 false)
  %16 = load ptr, ptr %0, align 8
  %17 = getelementptr inbounds i8, ptr %16, i64 %13
  store ptr %17, ptr %0, align 8
  %18 = ptrtoint ptr %14 to i64
  br label %19

19:                                               ; preds = %12, %9, %6
  %.0 = phi i64 [ 0, %6 ], [ %.0.copyload, %9 ], [ %18, %12 ]
  ret i64 %.0
}